target datalayout = "e-m:e-p270:32:32-p271:32:32-p272:64:64-i64:64-i128:128-f80:128-n8:16:32:64-S128"
target triple = "x86_64-pc-linux-gnu"

%"class.testing::(anonymous namespace)::BetweenCardinalityImpl" = type { %"class.testing::CardinalityInterface", i32, i32 }
%"class.testing::CardinalityInterface" = type { ptr }

; Function Attrs: mustprogress nounwind uwtable
define internal noundef zeroext i1 @_ZNK7testing12_GLOBAL__N_122BetweenCardinalityImpl22IsSatisfiedByCallCountEi(ptr noundef nonnull align 8 dereferenceable(16) %0, i32 noundef %1) unnamed_addr #7 align 2 {
  %3 = alloca ptr, align 8
  %4 = alloca i32, align 4
  store ptr %0, ptr %3, align 8, !tbaa !17
  store i32 %1, ptr %4, align 4, !tbaa !4
  %5 = load ptr, ptr %3, align 8
  %6 = getelementptr inbounds nuw %"class.testing::(anonymous namespace)::BetweenCardinalityImpl", ptr %5, i32 0, i32 1
  %7 = load i32, ptr %6, align 8, !tbaa !19
  %8 = load i32, ptr %4, align 4, !tbaa !4
  %9 = icmp sle i32 %7, %8
  br i1 %9, label %10, label %15

10:                                               ; preds = %2
  %11 = load i32, ptr %4, align 4, !tbaa !4
  %12 = getelementptr inbounds nuw %"class.testing::(anonymous namespace)::BetweenCardinalityImpl", ptr %5, i32 0, i32 2
  %13 = load i32, ptr %12, align 4, !tbaa !22
  %14 = icmp sle i32 %11, %13
  br label %15

15:                                               ; preds = %10, %2
  %16 = phi i1 [ false, %2 ], [ %14, %10 ]
  ret i1 %16
}